target datalayout = "e-m:e-p270:32:32-p271:32:32-p272:64:64-i64:64-i128:128-f80:128-n8:16:32:64-S128"
target triple = "x86_64-pc-linux-gnu"

%"class.sat::literal" = type { i32 }
%"class.smt::clause_proof" = type { ptr, ptr, %class.ref_vector, %class.vector.0, i8, i8, %"class.std::function", ptr, %class.ast_pp_util, %class.scoped_ptr.22, %class.obj_ref, %class.obj_ref, %class.obj_ref, %class.obj_ref }
%class.ref_vector = type { %class.ref_vector_core }
%class.ref_vector_core = type { %class.ref_manager_wrapper, %class.ptr_vector }
%class.ref_manager_wrapper = type { ptr }
%class.ptr_vector = type { %class.vector }
%class.vector = type { ptr }
%class.vector.0 = type { ptr }
%"class.std::function" = type { %"class.std::_Function_base", ptr }
%"class.std::_Function_base" = type { %"union.std::_Any_data", ptr }
%"union.std::_Any_data" = type { %"union.std::_Nocopy_types" }
%"union.std::_Nocopy_types" = type { { i64, i64 } }
%class.ast_pp_util = type { ptr, %class.obj_hashtable, %class.smt2_pp_environment_dbg, %class.stacked_value, %class.stacked_value, %class.stacked_value, %class.obj_mark, %class.ref_vector, %class.svector, %class.decl_collector }
%class.obj_hashtable = type { %class.core_hashtable.base, [4 x i8] }
%class.core_hashtable.base = type <{ ptr, i32, i32, i32 }>
%class.smt2_pp_environment_dbg = type { %class.smt2_pp_environment, ptr, %class.arith_util, %class.bv_util, %class.array_util, %class.fpa_util, %class.seq_util, %"class.datatype::util", %"class.datalog::dl_decl_util" }
%class.smt2_pp_environment = type { ptr, %class.smt_renaming }
%class.smt_renaming = type { %class.map, %class.map.3 }
%class.map = type { %class.table2map }
%class.table2map = type { %class.core_hashtable.1 }
%class.core_hashtable.1 = type <{ ptr, i32, i32, i32, [4 x i8] }>
%class.map.3 = type { %class.table2map.4 }
%class.table2map.4 = type { %class.core_hashtable.5 }
%class.core_hashtable.5 = type <{ ptr, i32, i32, i32, [4 x i8] }>
%class.arith_util = type { ptr, ptr }
%class.bv_util = type { %class.bv_recognizers, ptr, ptr }
%class.bv_recognizers = type { i32 }
%class.array_util = type { %class.array_recognizers, ptr }
%class.array_recognizers = type { i32 }
%class.fpa_util = type { ptr, ptr, i32, %class.arith_util, %class.bv_util }
%class.seq_util = type { ptr, ptr, ptr, i32, [4 x i8], %"class.seq_util::str", %"class.seq_util::rex" }
%"class.seq_util::str" = type <{ ptr, ptr, i32, [4 x i8] }>
%"class.seq_util::rex" = type { ptr, ptr, i32, %class.vector.7, %class.ref_vector, %"struct.seq_util::rex::info", %"struct.seq_util::rex::info" }
%class.vector.7 = type { ptr }
%"struct.seq_util::rex::info" = type { i32, i8, i32, i32 }
%"class.datatype::util" = type { ptr, i32, ptr }
%"class.datalog::dl_decl_util" = type <{ ptr, %class.scoped_ptr, %class.scoped_ptr.8, i32, [4 x i8] }>
%class.scoped_ptr = type { ptr }
%class.scoped_ptr.8 = type { ptr }
%class.stacked_value = type { i32, %class.vector.9 }
%class.vector.9 = type { ptr }
%class.obj_mark = type { [8 x i8], %class.bit_vector }
%class.bit_vector = type { i32, i32, ptr }
%class.svector = type { %class.vector.10 }
%class.vector.10 = type { ptr }
%class.decl_collector = type { ptr, %class.lim_svector, %class.lim_svector.13, %class.lim_svector.13, %class.ast_mark, %class.ref_vector.17, %class.svector, i32, i32, %"class.datatype::util", %class.array_util, i32, %class.ptr_vector.20 }
%class.lim_svector = type { %class.svector.11, %class.svector }
%class.svector.11 = type { %class.vector.12 }
%class.vector.12 = type { ptr }
%class.lim_svector.13 = type { %class.svector.14, %class.svector }
%class.svector.14 = type { %class.vector.15 }
%class.vector.15 = type { ptr }
%class.ast_mark = type { ptr, %class.obj_mark, %class.obj_mark.16 }
%class.obj_mark.16 = type { [8 x i8], %class.bit_vector }
%class.ref_vector.17 = type { %class.ref_vector_core.18 }
%class.ref_vector_core.18 = type { %class.ref_manager_wrapper.19, %class.ptr_vector.20 }
%class.ref_manager_wrapper.19 = type { ptr }
%class.ptr_vector.20 = type { %class.vector.21 }
%class.vector.21 = type { ptr }
%class.scoped_ptr.22 = type { ptr }
%class.obj_ref = type { ptr, ptr }
%"class.smt::clause" = type { i32, i32, [0 x %"class.sat::literal"] }

@.str.5 = private unnamed_addr constant [112 x i8] c"generated/home/dtcxzyw/WorkSpace/Projects/compilers/llvm-opt-benchmark/bench/z3/z3/src/smt/smt_clause_proof.cpp\00", align 1
@.str.6 = private unnamed_addr constant [29 x i8] c"UNEXPECTED CODE WAS REACHED.\00", align 1

; Function Attrs: inlinehint mustprogress nounwind uwtable
define linkonce_odr hidden noundef zeroext i1 @_ZN3smt8is_lemmaENS_11clause_kindE(i32 noundef %0) #8 comdat {
  %2 = alloca i32, align 4
  store i32 %0, ptr %2, align 4, !tbaa !602
  %3 = load i32, ptr %2, align 4, !tbaa !602
  %4 = icmp eq i32 %3, 2
  br i1 %4, label %8, label %5

5:                                                ; preds = %1
  %6 = load i32, ptr %2, align 4, !tbaa !602
  %7 = icmp eq i32 %6, 3
  br label %8

8:                                                ; preds = %5, %1
  %9 = phi i1 [ true, %1 ], [ %7, %5 ]
  ret i1 %9
}

; Function Attrs: mustprogress uwtable
define linkonce_odr hidden noundef zeroext i1 @_ZNK3smt6clause8is_lemmaEv(ptr noundef nonnull align 4 dereferenceable(8) %0) #6 comdat align 2 {
  %2 = alloca ptr, align 8
  store ptr %0, ptr %2, align 8, !tbaa !24
  %3 = load ptr, ptr %2, align 8
  %4 = call noundef i32 @_ZNK3smt6clause8get_kindEv(ptr noundef nonnull align 4 dereferenceable(8) %3)
  %5 = call noundef zeroext i1 @_ZN3smt8is_lemmaENS_11clause_kindE(i32 noundef %4)
  ret i1 %5
}

; Function Attrs: mustprogress nounwind uwtable
define linkonce_odr hidden noundef ptr @_ZNK3smt6clause17get_activity_addrEv(ptr noundef nonnull align 4 dereferenceable(8) %0) #4 comdat align 2 {
  %2 = alloca ptr, align 8
  store ptr %0, ptr %2, align 8, !tbaa !24
  %3 = load ptr, ptr %2, align 8
  %4 = getelementptr inbounds nuw %"class.smt::clause", ptr %3, i32 0, i32 2
  %5 = getelementptr inbounds [0 x %"class.sat::literal"], ptr %4, i64 0, i64 0
  %6 = getelementptr inbounds nuw %"class.smt::clause", ptr %3, i32 0, i32 1
  %7 = load i32, ptr %6, align 4
  %8 = and i32 %7, 16777215
  %9 = sext i32 %8 to i64
  %10 = getelementptr inbounds %"class.sat::literal", ptr %5, i64 %9
  ret ptr %10
}

; Function Attrs: mustprogress uwtable
define linkonce_odr hidden noundef ptr @_ZNK3smt6clause15get_del_eh_addrEv(ptr noundef nonnull align 4 dereferenceable(8) %0) #6 comdat align 2 {
  %2 = alloca ptr, align 8
  %3 = alloca ptr, align 8
  %4 = alloca i64, align 8
  store ptr %0, ptr %2, align 8, !tbaa !24
  %5 = load ptr, ptr %2, align 8
  call void @llvm.lifetime.start.p0(i64 8, ptr %3) #3
  %6 = call noundef ptr @_ZNK3smt6clause17get_activity_addrEv(ptr noundef nonnull align 4 dereferenceable(8) %5)
  store ptr %6, ptr %3, align 8, !tbaa !676
  %7 = call noundef zeroext i1 @_ZNK3smt6clause8is_lemmaEv(ptr noundef nonnull align 4 dereferenceable(8) %5)
  br i1 %7, label %8, label %11

8:                                                ; preds = %1
  %9 = load ptr, ptr %3, align 8, !tbaa !676
  %10 = getelementptr inbounds nuw i32, ptr %9, i32 1
  store ptr %10, ptr %3, align 8, !tbaa !676
  br label %11

11:                                               ; preds = %8, %1
  call void @llvm.lifetime.start.p0(i64 8, ptr %4) #3
  %12 = load ptr, ptr %3, align 8, !tbaa !676
  %13 = ptrtoint ptr %12 to i64
  store i64 %13, ptr %4, align 8, !tbaa !593
  %14 = load i64, ptr %4, align 8, !tbaa !593
  %15 = add i64 %14, 8
  %16 = sub i64 %15, 1
  %17 = and i64 %16, -8
  store i64 %17, ptr %4, align 8, !tbaa !593
  %18 = load i64, ptr %4, align 8, !tbaa !593
  %19 = inttoptr i64 %18 to ptr
  call void @llvm.lifetime.end.p0(i64 8, ptr %4) #3
  call void @llvm.lifetime.end.p0(i64 8, ptr %3) #3
  ret ptr %19
}

; Function Attrs: mustprogress uwtable
define linkonce_odr hidden noundef ptr @_ZNK3smt6clause22get_justification_addrEv(ptr noundef nonnull align 4 dereferenceable(8) %0) #6 comdat align 2 {
  %2 = alloca ptr, align 8
  %3 = alloca ptr, align 8
  store ptr %0, ptr %2, align 8, !tbaa !24
  %4 = load ptr, ptr %2, align 8
  call void @llvm.lifetime.start.p0(i64 8, ptr %3) #3
  %5 = call noundef ptr @_ZNK3smt6clause15get_del_eh_addrEv(ptr noundef nonnull align 4 dereferenceable(8) %4)
  store ptr %5, ptr %3, align 8, !tbaa !858
  %6 = getelementptr inbounds nuw %"class.smt::clause", ptr %4, i32 0, i32 1
  %7 = load i32, ptr %6, align 4
  %8 = lshr i32 %7, 29
  %9 = and i32 %8, 1
  %10 = icmp ne i32 %9, 0
  br i1 %10, label %11, label %14

11:                                               ; preds = %1
  %12 = load ptr, ptr %3, align 8, !tbaa !858
  %13 = getelementptr inbounds nuw ptr, ptr %12, i32 1
  store ptr %13, ptr %3, align 8, !tbaa !858
  br label %14

14:                                               ; preds = %11, %1
  %15 = load ptr, ptr %3, align 8, !tbaa !858
  call void @llvm.lifetime.end.p0(i64 8, ptr %3) #3
  ret ptr %15
}

; Function Attrs: mustprogress nounwind uwtable
define linkonce_odr hidden noundef ptr @_ZNK7obj_refI3app11ast_managerEcvPS0_Ev(ptr noundef nonnull align 8 dereferenceable(16) %0) #4 comdat align 2 {
  %2 = alloca ptr, align 8
  store ptr %0, ptr %2, align 8, !tbaa !576
  %3 = load ptr, ptr %2, align 8
  %4 = getelementptr inbounds nuw %class.obj_ref, ptr %3, i32 0, i32 0
  %5 = load ptr, ptr %4, align 8, !tbaa !578
  ret ptr %5
}

; Function Attrs: mustprogress uwtable
define hidden noundef i32 @_ZN3smt12clause_proof7kind2stENS_11clause_kindE(ptr noundef nonnull align 8 dereferenceable(864) %0, i32 noundef %1) #6 align 2 {
  %3 = alloca i32, align 4
  %4 = alloca ptr, align 8
  %5 = alloca i32, align 4
  store ptr %0, ptr %4, align 8, !tbaa !28
  store i32 %1, ptr %5, align 4, !tbaa !602
  %6 = load i32, ptr %5, align 4, !tbaa !602
  switch i32 %6, label %11 [
    i32 0, label %7
    i32 1, label %8
    i32 2, label %9
    i32 3, label %10
  ]

7:                                                ; preds = %2
  store i32 1, ptr %3, align 4
  br label %12

8:                                                ; preds = %2
  store i32 3, ptr %3, align 4
  br label %12

9:                                                ; preds = %2
  store i32 0, ptr %3, align 4
  br label %12

10:                                               ; preds = %2
  store i32 2, ptr %3, align 4
  br label %12

11:                                               ; preds = %2
  call void @_Z26notify_assertion_violationPKciS0_(ptr noundef @.str.5, i32 noundef 57, ptr noundef @.str.6)
  call void @_Z18invoke_exit_actionj(i32 noundef 114)
  store i32 0, ptr %3, align 4
  br label %12

12:                                               ; preds = %11, %10, %9, %8, %7
  %13 = load i32, ptr %3, align 4
  ret i32 %13
}

; Function Attrs: mustprogress nounwind uwtable
define linkonce_odr hidden noundef i32 @_ZNK3smt6clause8get_kindEv(ptr noundef nonnull align 4 dereferenceable(8) %0) #4 comdat align 2 {
  %2 = alloca ptr, align 8
  store ptr %0, ptr %2, align 8, !tbaa !24
  %3 = load ptr, ptr %2, align 8
  %4 = getelementptr inbounds nuw %"class.smt::clause", ptr %3, i32 0, i32 1
  %5 = load i32, ptr %4, align 4
  %6 = lshr i32 %5, 24
  %7 = and i32 %6, 3
  ret i32 %7
}

; Function Attrs: mustprogress uwtable
define linkonce_odr hidden noundef ptr @_ZNK3smt6clause17get_justificationEv(ptr noundef nonnull align 4 dereferenceable(8) %0) #6 comdat align 2 {
  %2 = alloca ptr, align 8
  store ptr %0, ptr %2, align 8, !tbaa !24
  %3 = load ptr, ptr %2, align 8
  %4 = getelementptr inbounds nuw %"class.smt::clause", ptr %3, i32 0, i32 1
  %5 = load i32, ptr %4, align 4
  %6 = lshr i32 %5, 30
  %7 = and i32 %6, 1
  %8 = icmp ne i32 %7, 0
  br i1 %8, label %9, label %12

9:                                                ; preds = %1
  %10 = call noundef ptr @_ZNK3smt6clause22get_justification_addrEv(ptr noundef nonnull align 4 dereferenceable(8) %3)
  %11 = load ptr, ptr %10, align 8, !tbaa !18
  br label %13

12:                                               ; preds = %1
  br label %13

13:                                               ; preds = %12, %9
  %14 = phi ptr [ %11, %9 ], [ null, %12 ]
  ret ptr %14
}

; Function Attrs: mustprogress nounwind uwtable
define linkonce_odr hidden noundef zeroext i1 @_ZNK3smt12clause_proof10is_enabledEv(ptr noundef nonnull align 8 dereferenceable(864) %0) #4 comdat align 2 {
  %2 = alloca ptr, align 8
  store ptr %0, ptr %2, align 8, !tbaa !28
  %3 = load ptr, ptr %2, align 8
  %4 = getelementptr inbounds nuw %"class.smt::clause_proof", ptr %3, i32 0, i32 4
  %5 = load i8, ptr %4, align 8, !tbaa !118, !range !12, !noundef !13
  %6 = trunc i8 %5 to i1
  ret i1 %6
}

; Function Attrs: mustprogress uwtable
define hidden void @_ZN3smt12clause_proof3addERNS_6clauseEPK7sbufferIN3sat7literalELj16EE(ptr noundef nonnull align 8 dereferenceable(864) %0, ptr noundef nonnull align 4 dereferenceable(8) %1, ptr noundef %2) #6 align 2 personality ptr @__gxx_personality_v0 {
  %4 = alloca ptr, align 8
  %5 = alloca ptr, align 8
  %6 = alloca ptr, align 8
  %7 = alloca ptr, align 8
  %8 = alloca i32, align 4
  %9 = alloca %class.obj_ref, align 8
  %10 = alloca ptr, align 8
  %11 = alloca i32, align 4
  store ptr %0, ptr %4, align 8, !tbaa !28
  store ptr %1, ptr %5, align 8, !tbaa !24
  store ptr %2, ptr %6, align 8, !tbaa !649
  %12 = load ptr, ptr %4, align 8
  %13 = call noundef zeroext i1 @_ZNK3smt12clause_proof10is_enabledEv(ptr noundef nonnull align 8 dereferenceable(864) %12)
  br i1 %13, label %15, label %14

14:                                               ; preds = %3
  br label %29

15:                                               ; preds = %3
  call void @llvm.lifetime.start.p0(i64 8, ptr %7) #3
  %16 = load ptr, ptr %5, align 8, !tbaa !24
  %17 = call noundef ptr @_ZNK3smt6clause17get_justificationEv(ptr noundef nonnull align 4 dereferenceable(8) %16)
  store ptr %17, ptr %7, align 8, !tbaa !18
  call void @llvm.lifetime.start.p0(i64 4, ptr %8) #3
  %18 = load ptr, ptr %5, align 8, !tbaa !24
  %19 = call noundef i32 @_ZNK3smt6clause8get_kindEv(ptr noundef nonnull align 4 dereferenceable(8) %18)
  %20 = call noundef i32 @_ZN3smt12clause_proof7kind2stENS_11clause_kindE(ptr noundef nonnull align 8 dereferenceable(864) %12, i32 noundef %19)
  store i32 %20, ptr %8, align 4, !tbaa !604
  call void @llvm.lifetime.start.p0(i64 16, ptr %9) #3
  %21 = load i32, ptr %8, align 4, !tbaa !604
  %22 = load ptr, ptr %7, align 8, !tbaa !18
  call void @_ZN3smt12clause_proof19justification2proofENS0_6statusEPNS_13justificationE(ptr dead_on_unwind writable sret(%class.obj_ref) align 8 %9, ptr noundef nonnull align 8 dereferenceable(864) %12, i32 noundef %21, ptr noundef %22)
  %23 = load ptr, ptr %5, align 8, !tbaa !24
  %24 = load i32, ptr %8, align 4, !tbaa !604
  %25 = invoke noundef ptr @_ZNK7obj_refI3app11ast_managerEcvPS0_Ev(ptr noundef nonnull align 8 dereferenceable(16) %9)
          to label %26 unwind label %30

26:                                               ; preds = %15
  %27 = load ptr, ptr %6, align 8, !tbaa !649
  invoke void @_ZN3smt12clause_proof6updateERNS_6clauseENS0_6statusEP3appPK7sbufferIN3sat7literalELj16EE(ptr noundef nonnull align 8 dereferenceable(864) %12, ptr noundef nonnull align 4 dereferenceable(8) %23, i32 noundef %24, ptr noundef %25, ptr noundef %27)
          to label %28 unwind label %30

28:                                               ; preds = %26
  call void @_ZN7obj_refI3app11ast_managerED2Ev(ptr noundef nonnull align 8 dereferenceable(16) %9) #3
  call void @llvm.lifetime.end.p0(i64 16, ptr %9) #3
  call void @llvm.lifetime.end.p0(i64 4, ptr %8) #3
  call void @llvm.lifetime.end.p0(i64 8, ptr %7) #3
  br label %29

29:                                               ; preds = %28, %14
  ret void

30:                                               ; preds = %26, %15
  %31 = landingpad { ptr, i32 }
          cleanup
  %32 = extractvalue { ptr, i32 } %31, 0
  store ptr %32, ptr %10, align 8
  %33 = extractvalue { ptr, i32 } %31, 1
  store i32 %33, ptr %11, align 4
  call void @_ZN7obj_refI3app11ast_managerED2Ev(ptr noundef nonnull align 8 dereferenceable(16) %9) #3
  call void @llvm.lifetime.end.p0(i64 16, ptr %9) #3
  call void @llvm.lifetime.end.p0(i64 4, ptr %8) #3
  call void @llvm.lifetime.end.p0(i64 8, ptr %7) #3
  br label %34

34:                                               ; preds = %30
  %35 = load ptr, ptr %10, align 8
  %36 = load i32, ptr %11, align 4
  %37 = insertvalue { ptr, i32 } poison, ptr %35, 0
  %38 = insertvalue { ptr, i32 } %37, i32 %36, 1
  resume { ptr, i32 } %38
}