; Function Attrs: mustprogress uwtable
define hidden void @_ZN3smt12clause_proof3addERNS_6clauseEPK7sbufferIN3sat7literalELj16EE(ptr noundef nonnull align 8 dereferenceable(864) %0, ptr noundef nonnull align 4 dereferenceable(8) %1, ptr noundef captures(address_is_null) %2) local_unnamed_addr #4 align 2 personality ptr @__gxx_personality_v0 {
  %4 = alloca %class.obj_ref, align 8
  %5 = getelementptr inbounds nuw i8, ptr %0, i64 40
  %6 = load i8, ptr %5, align 8, !tbaa !546, !range !544, !noundef !545
  %7 = trunc nuw i8 %6 to i1
  br i1 %7, label %8, label %43

8:                                                ; preds = %3
  %9 = getelementptr inbounds nuw i8, ptr %1, i64 4
  %10 = load i32, ptr %9, align 4
  %11 = and i32 %10, 1073741824
  %.not.i = icmp eq i32 %11, 0
  br i1 %.not.i, label %_ZNK3smt6clause17get_justificationEv.exit, label %12

12:                                               ; preds = %8
  %13 = getelementptr inbounds nuw i8, ptr %1, i64 8
  %14 = and i32 %10, 16777215
  %15 = zext nneg i32 %14 to i64
  %16 = getelementptr inbounds nuw %"class.sat::literal", ptr %13, i64 %15
  %17 = lshr i32 %10, 23
  %18 = and i32 %17, 4
  %spec.select.idx.i.i.i = zext nneg i32 %18 to i64
  %spec.select.i.i.i = getelementptr inbounds nuw i8, ptr %16, i64 %spec.select.idx.i.i.i
  %19 = ptrtoint ptr %spec.select.i.i.i to i64
  %20 = add i64 %19, 7
  %21 = and i64 %20, -8
  %22 = inttoptr i64 %21 to ptr
  %23 = lshr i32 %10, 26
  %24 = and i32 %23, 8
  %spec.select.idx.i.i = zext nneg i32 %24 to i64
  %spec.select.i.i = getelementptr inbounds nuw i8, ptr %22, i64 %spec.select.idx.i.i
  %25 = load ptr, ptr %spec.select.i.i, align 8, !tbaa !633
  br label %_ZNK3smt6clause17get_justificationEv.exit

_ZNK3smt6clause17get_justificationEv.exit:        ; preds = %8, %12
  %26 = phi ptr [ %25, %12 ], [ null, %8 ]
  %27 = lshr i32 %10, 24
  %28 = and i32 %27, 3
  %29 = zext nneg i32 %28 to i64
  %switch.gep = getelementptr inbounds nuw [4 x i32], ptr @switch.table._ZN3smt12clause_proof3addEN3sat7literalES2_NS_11clause_kindEPNS_13justificationEPK7sbufferIS2_Lj16EE, i64 0, i64 %29
  %switch.load = load i32, ptr %switch.gep, align 4
  call void @llvm.lifetime.start.p0(i64 16, ptr nonnull %4) #23
  call void @_ZN3smt12clause_proof19justification2proofENS0_6statusEPNS_13justificationE(ptr dead_on_unwind nonnull writable sret(%class.obj_ref) align 8 %4, ptr noundef nonnull align 8 dereferenceable(864) %0, i32 noundef %switch.load, ptr noundef %26)
  %30 = load ptr, ptr %4, align 8, !tbaa !508
  invoke void @_ZN3smt12clause_proof6updateERNS_6clauseENS0_6statusEP3appPK7sbufferIN3sat7literalELj16EE(ptr noundef nonnull align 8 dereferenceable(864) %0, ptr noundef nonnull align 4 dereferenceable(8) %1, i32 noundef %switch.load, ptr noundef %30, ptr noundef %2)
          to label %31 unwind label %44

31:                                               ; preds = %_ZNK3smt6clause17get_justificationEv.exit
  %.not.i.i = icmp eq ptr %30, null
  br i1 %.not.i.i, label %_ZN7obj_refI3app11ast_managerED2Ev.exit, label %32

32:                                               ; preds = %31
  %33 = getelementptr inbounds nuw i8, ptr %4, i64 8
  %34 = load ptr, ptr %33, align 8, !tbaa !556
  %35 = getelementptr inbounds nuw i8, ptr %30, i64 8
  %36 = load i32, ptr %35, align 4, !tbaa !557
  %37 = add i32 %36, -1
  store i32 %37, ptr %35, align 4, !tbaa !557
  %38 = icmp eq i32 %37, 0
  br i1 %38, label %39, label %_ZN7obj_refI3app11ast_managerED2Ev.exit

39:                                               ; preds = %32
  invoke void @_ZN11ast_manager11delete_nodeEP3ast(ptr noundef nonnull align 8 dereferenceable(976) %34, ptr noundef nonnull %30)
          to label %_ZN7obj_refI3app11ast_managerED2Ev.exit unwind label %40

40:                                               ; preds = %39
  %41 = landingpad { ptr, i32 }
          catch ptr null
  %42 = extractvalue { ptr, i32 } %41, 0
  tail call void @__clang_call_terminate(ptr %42) #22
  unreachable

_ZN7obj_refI3app11ast_managerED2Ev.exit:          ; preds = %31, %32, %39
  call void @llvm.lifetime.end.p0(i64 16, ptr nonnull %4) #23
  br label %43

43:                                               ; preds = %3, %_ZN7obj_refI3app11ast_managerED2Ev.exit
  ret void

44:                                               ; preds = %_ZNK3smt6clause17get_justificationEv.exit
  %45 = landingpad { ptr, i32 }
          cleanup
  call void @_ZN7obj_refI3app11ast_managerED2Ev(ptr noundef nonnull align 8 dereferenceable(16) %4) #23
  call void @llvm.lifetime.end.p0(i64 16, ptr nonnull %4) #23
  resume { ptr, i32 } %45
}